target datalayout = "e-m:e-p270:32:32-p271:32:32-p272:64:64-i64:64-i128:128-f80:128-n8:16:32:64-S128"
target triple = "x86_64-pc-linux-gnu"

%struct.bio_st = type { ptr, ptr, ptr, i32, i32, i32, i32, i32, i32, ptr, ptr, i64, i64 }
%struct.bio_connect_st = type { i32, ptr, ptr, i32, i16, %struct.sockaddr_storage, i32, ptr }
%struct.sockaddr_storage = type { i16, [118 x i8], i64 }

; Function Attrs: nounwind uwtable
define internal i32 @closesocket(i32 noundef %0) #0 {
  %2 = alloca i32, align 4
  store i32 %0, ptr %2, align 4, !tbaa !13
  %3 = load i32, ptr %2, align 4, !tbaa !13
  %4 = call i32 @close(i32 noundef %3)
  ret i32 %4
}

; Function Attrs: nounwind uwtable
define internal void @conn_close_socket(ptr noundef %0) #0 {
  %2 = alloca ptr, align 8
  %3 = alloca ptr, align 8
  %4 = alloca i32, align 4
  store ptr %0, ptr %2, align 8, !tbaa !11
  call void @llvm.lifetime.start.p0(i64 8, ptr %3) #7
  %5 = load ptr, ptr %2, align 8, !tbaa !11
  %6 = getelementptr inbounds nuw %struct.bio_st, ptr %5, i32 0, i32 9
  %7 = load ptr, ptr %6, align 8, !tbaa !15
  store ptr %7, ptr %3, align 8, !tbaa !19
  %8 = load ptr, ptr %2, align 8, !tbaa !11
  %9 = getelementptr inbounds nuw %struct.bio_st, ptr %8, i32 0, i32 7
  %10 = load i32, ptr %9, align 8, !tbaa !25
  %11 = icmp eq i32 %10, -1
  br i1 %11, label %12, label %13

12:                                               ; preds = %1
  store i32 1, ptr %4, align 4
  br label %30

13:                                               ; preds = %1
  %14 = load ptr, ptr %3, align 8, !tbaa !19
  %15 = getelementptr inbounds nuw %struct.bio_connect_st, ptr %14, i32 0, i32 0
  %16 = load i32, ptr %15, align 8, !tbaa !21
  %17 = icmp eq i32 %16, 2
  br i1 %17, label %18, label %23

18:                                               ; preds = %13
  %19 = load ptr, ptr %2, align 8, !tbaa !11
  %20 = getelementptr inbounds nuw %struct.bio_st, ptr %19, i32 0, i32 7
  %21 = load i32, ptr %20, align 8, !tbaa !25
  %22 = call i32 @shutdown(i32 noundef %21, i32 noundef 2) #7
  br label %23

23:                                               ; preds = %18, %13
  %24 = load ptr, ptr %2, align 8, !tbaa !11
  %25 = getelementptr inbounds nuw %struct.bio_st, ptr %24, i32 0, i32 7
  %26 = load i32, ptr %25, align 8, !tbaa !25
  %27 = call i32 @closesocket(i32 noundef %26)
  %28 = load ptr, ptr %2, align 8, !tbaa !11
  %29 = getelementptr inbounds nuw %struct.bio_st, ptr %28, i32 0, i32 7
  store i32 -1, ptr %29, align 8, !tbaa !25
  store i32 0, ptr %4, align 4
  br label %30

30:                                               ; preds = %23, %12
  call void @llvm.lifetime.end.p0(i64 8, ptr %3) #7
  %31 = load i32, ptr %4, align 4
  switch i32 %31, label %33 [
    i32 0, label %32
    i32 1, label %32
  ]

32:                                               ; preds = %30, %30
  ret void

33:                                               ; preds = %30
  unreachable
}

; Function Attrs: nounwind uwtable
define internal i64 @conn_ctrl(ptr noundef %0, i32 noundef %1, i64 noundef %2, ptr noundef %3) #0 {
  %5 = alloca ptr, align 8
  %6 = alloca i32, align 4
  %7 = alloca i64, align 8
  %8 = alloca ptr, align 8
  %9 = alloca ptr, align 8
  %10 = alloca i64, align 8
  %11 = alloca ptr, align 8
  %12 = alloca ptr, align 8
  store ptr %0, ptr %5, align 8, !tbaa !11
  store i32 %1, ptr %6, align 4, !tbaa !13
  store i64 %2, ptr %7, align 8, !tbaa !26
  store ptr %3, ptr %8, align 8, !tbaa !27
  call void @llvm.lifetime.start.p0(i64 8, ptr %9) #7
  call void @llvm.lifetime.start.p0(i64 8, ptr %10) #7
  store i64 1, ptr %10, align 8, !tbaa !26
  call void @llvm.lifetime.start.p0(i64 8, ptr %11) #7
  %13 = load ptr, ptr %5, align 8, !tbaa !11
  %14 = getelementptr inbounds nuw %struct.bio_st, ptr %13, i32 0, i32 9
  %15 = load ptr, ptr %14, align 8, !tbaa !15
  store ptr %15, ptr %11, align 8, !tbaa !19
  %16 = load i32, ptr %6, align 4, !tbaa !13
  switch i32 %16, label %122 [
    i32 1, label %17
    i32 101, label %23
    i32 100, label %35
    i32 102, label %78
    i32 105, label %83
    i32 8, label %104
    i32 9, label %109
    i32 10, label %114
    i32 13, label %114
    i32 11, label %123
    i32 14, label %115
    i32 15, label %116
  ]

17:                                               ; preds = %4
  store i64 0, ptr %10, align 8, !tbaa !26
  %18 = load ptr, ptr %11, align 8, !tbaa !19
  %19 = getelementptr inbounds nuw %struct.bio_connect_st, ptr %18, i32 0, i32 0
  store i32 0, ptr %19, align 8, !tbaa !21
  %20 = load ptr, ptr %5, align 8, !tbaa !11
  call void @conn_close_socket(ptr noundef %20)
  %21 = load ptr, ptr %5, align 8, !tbaa !11
  %22 = getelementptr inbounds nuw %struct.bio_st, ptr %21, i32 0, i32 5
  store i32 0, ptr %22, align 8, !tbaa !28
  br label %123

23:                                               ; preds = %4
  %24 = load ptr, ptr %11, align 8, !tbaa !19
  %25 = getelementptr inbounds nuw %struct.bio_connect_st, ptr %24, i32 0, i32 0
  %26 = load i32, ptr %25, align 8, !tbaa !21
  %27 = icmp ne i32 %26, 2
  br i1 %27, label %28, label %33

28:                                               ; preds = %23
  %29 = load ptr, ptr %5, align 8, !tbaa !11
  %30 = load ptr, ptr %11, align 8, !tbaa !19
  %31 = call i32 @conn_state(ptr noundef %29, ptr noundef %30)
  %32 = sext i32 %31 to i64
  store i64 %32, ptr %10, align 8, !tbaa !26
  br label %34

33:                                               ; preds = %23
  store i64 1, ptr %10, align 8, !tbaa !26
  br label %34

34:                                               ; preds = %33, %28
  br label %123

35:                                               ; preds = %4
  %36 = load ptr, ptr %8, align 8, !tbaa !27
  %37 = icmp ne ptr %36, null
  br i1 %37, label %38, label %77

38:                                               ; preds = %35
  %39 = load ptr, ptr %5, align 8, !tbaa !11
  %40 = getelementptr inbounds nuw %struct.bio_st, ptr %39, i32 0, i32 3
  store i32 1, ptr %40, align 8, !tbaa !29
  %41 = load i64, ptr %7, align 8, !tbaa !26
  %42 = icmp eq i64 %41, 0
  br i1 %42, label %43, label %57

43:                                               ; preds = %38
  %44 = load ptr, ptr %11, align 8, !tbaa !19
  %45 = getelementptr inbounds nuw %struct.bio_connect_st, ptr %44, i32 0, i32 1
  %46 = load ptr, ptr %45, align 8, !tbaa !30
  call void @free(ptr noundef %46) #7
  %47 = load ptr, ptr %8, align 8, !tbaa !27
  %48 = call ptr @BUF_strdup(ptr noundef %47)
  %49 = load ptr, ptr %11, align 8, !tbaa !19
  %50 = getelementptr inbounds nuw %struct.bio_connect_st, ptr %49, i32 0, i32 1
  store ptr %48, ptr %50, align 8, !tbaa !30
  %51 = load ptr, ptr %11, align 8, !tbaa !19
  %52 = getelementptr inbounds nuw %struct.bio_connect_st, ptr %51, i32 0, i32 1
  %53 = load ptr, ptr %52, align 8, !tbaa !30
  %54 = icmp eq ptr %53, null
  br i1 %54, label %55, label %56

55:                                               ; preds = %43
  store i64 0, ptr %10, align 8, !tbaa !26
  br label %56

56:                                               ; preds = %55, %43
  br label %76

57:                                               ; preds = %38
  %58 = load i64, ptr %7, align 8, !tbaa !26
  %59 = icmp eq i64 %58, 1
  br i1 %59, label %60, label %74

60:                                               ; preds = %57
  %61 = load ptr, ptr %11, align 8, !tbaa !19
  %62 = getelementptr inbounds nuw %struct.bio_connect_st, ptr %61, i32 0, i32 2
  %63 = load ptr, ptr %62, align 8, !tbaa !31
  call void @free(ptr noundef %63) #7
  %64 = load ptr, ptr %8, align 8, !tbaa !27
  %65 = call ptr @BUF_strdup(ptr noundef %64)
  %66 = load ptr, ptr %11, align 8, !tbaa !19
  %67 = getelementptr inbounds nuw %struct.bio_connect_st, ptr %66, i32 0, i32 2
  store ptr %65, ptr %67, align 8, !tbaa !31
  %68 = load ptr, ptr %11, align 8, !tbaa !19
  %69 = getelementptr inbounds nuw %struct.bio_connect_st, ptr %68, i32 0, i32 2
  %70 = load ptr, ptr %69, align 8, !tbaa !31
  %71 = icmp eq ptr %70, null
  br i1 %71, label %72, label %73

72:                                               ; preds = %60
  store i64 0, ptr %10, align 8, !tbaa !26
  br label %73

73:                                               ; preds = %72, %60
  br label %75

74:                                               ; preds = %57
  store i64 0, ptr %10, align 8, !tbaa !26
  br label %75

75:                                               ; preds = %74, %73
  br label %76

76:                                               ; preds = %75, %56
  br label %77

77:                                               ; preds = %76, %35
  br label %123

78:                                               ; preds = %4
  %79 = load i64, ptr %7, align 8, !tbaa !26
  %80 = trunc i64 %79 to i32
  %81 = load ptr, ptr %11, align 8, !tbaa !19
  %82 = getelementptr inbounds nuw %struct.bio_connect_st, ptr %81, i32 0, i32 3
  store i32 %80, ptr %82, align 8, !tbaa !32
  br label %123

83:                                               ; preds = %4
  %84 = load ptr, ptr %5, align 8, !tbaa !11
  %85 = getelementptr inbounds nuw %struct.bio_st, ptr %84, i32 0, i32 3
  %86 = load i32, ptr %85, align 8, !tbaa !29
  %87 = icmp ne i32 %86, 0
  br i1 %87, label %88, label %102

88:                                               ; preds = %83
  %89 = load ptr, ptr %8, align 8, !tbaa !27
  store ptr %89, ptr %9, align 8, !tbaa !33
  %90 = load ptr, ptr %9, align 8, !tbaa !33
  %91 = icmp ne ptr %90, null
  br i1 %91, label %92, label %97

92:                                               ; preds = %88
  %93 = load ptr, ptr %5, align 8, !tbaa !11
  %94 = getelementptr inbounds nuw %struct.bio_st, ptr %93, i32 0, i32 7
  %95 = load i32, ptr %94, align 8, !tbaa !25
  %96 = load ptr, ptr %9, align 8, !tbaa !33
  store i32 %95, ptr %96, align 4, !tbaa !13
  br label %97

97:                                               ; preds = %92, %88
  %98 = load ptr, ptr %5, align 8, !tbaa !11
  %99 = getelementptr inbounds nuw %struct.bio_st, ptr %98, i32 0, i32 7
  %100 = load i32, ptr %99, align 8, !tbaa !25
  %101 = sext i32 %100 to i64
  store i64 %101, ptr %10, align 8, !tbaa !26
  br label %103

102:                                              ; preds = %83
  store i64 -1, ptr %10, align 8, !tbaa !26
  br label %103

103:                                              ; preds = %102, %97
  br label %123

104:                                              ; preds = %4
  %105 = load ptr, ptr %5, align 8, !tbaa !11
  %106 = getelementptr inbounds nuw %struct.bio_st, ptr %105, i32 0, i32 4
  %107 = load i32, ptr %106, align 4, !tbaa !35
  %108 = sext i32 %107 to i64
  store i64 %108, ptr %10, align 8, !tbaa !26
  br label %123

109:                                              ; preds = %4
  %110 = load i64, ptr %7, align 8, !tbaa !26
  %111 = trunc i64 %110 to i32
  %112 = load ptr, ptr %5, align 8, !tbaa !11
  %113 = getelementptr inbounds nuw %struct.bio_st, ptr %112, i32 0, i32 4
  store i32 %111, ptr %113, align 4, !tbaa !35
  br label %123

114:                                              ; preds = %4, %4
  store i64 0, ptr %10, align 8, !tbaa !26
  br label %123

115:                                              ; preds = %4
  store i64 0, ptr %10, align 8, !tbaa !26
  br label %123

116:                                              ; preds = %4
  call void @llvm.lifetime.start.p0(i64 8, ptr %12) #7
  %117 = load ptr, ptr %8, align 8, !tbaa !27
  store ptr %117, ptr %12, align 8, !tbaa !27
  %118 = load ptr, ptr %11, align 8, !tbaa !19
  %119 = getelementptr inbounds nuw %struct.bio_connect_st, ptr %118, i32 0, i32 7
  %120 = load ptr, ptr %119, align 8, !tbaa !36
  %121 = load ptr, ptr %12, align 8, !tbaa !27
  store ptr %120, ptr %121, align 8, !tbaa !27
  call void @llvm.lifetime.end.p0(i64 8, ptr %12) #7
  br label %123

122:                                              ; preds = %4
  store i64 0, ptr %10, align 8, !tbaa !26
  br label %123

123:                                              ; preds = %122, %116, %115, %4, %114, %109, %104, %103, %78, %77, %34, %17
  %124 = load i64, ptr %10, align 8, !tbaa !26
  call void @llvm.lifetime.end.p0(i64 8, ptr %11) #7
  call void @llvm.lifetime.end.p0(i64 8, ptr %10) #7
  call void @llvm.lifetime.end.p0(i64 8, ptr %9) #7
  ret i64 %124
}