; Function Attrs: nounwind uwtable
define internal range(i64 -2147483648, 2147483648) i64 @conn_ctrl(ptr noundef %0, i32 noundef %1, i64 noundef %2, ptr noundef %3) #0 {
  %5 = getelementptr inbounds nuw i8, ptr %0, i64 48
  %6 = load ptr, ptr %5, align 8, !tbaa !6
  switch i32 %1, label %51 [
    i32 1, label %7
    i32 101, label %14
    i32 100, label %19
    i32 102, label %32
    i32 105, label %35
    i32 8, label %41
    i32 9, label %45
    i32 15, label %48
    i32 11, label %52
  ]

7:                                                ; preds = %4
  store i32 0, ptr %6, align 8, !tbaa !16
  %8 = getelementptr inbounds nuw i8, ptr %0, i64 40
  %9 = load i32, ptr %8, align 8, !tbaa !20
  %10 = icmp eq i32 %9, -1
  br i1 %10, label %conn_close_socket.exit, label %11

11:                                               ; preds = %7
  %12 = tail call i32 @close(i32 noundef %9) #10
  store i32 -1, ptr %8, align 8, !tbaa !20
  br label %conn_close_socket.exit

conn_close_socket.exit:                           ; preds = %7, %11
  %13 = getelementptr inbounds nuw i8, ptr %0, i64 32
  store i32 0, ptr %13, align 8, !tbaa !21
  br label %52

14:                                               ; preds = %4
  %15 = load i32, ptr %6, align 8, !tbaa !16
  %.not38 = icmp eq i32 %15, 2
  br i1 %.not38, label %52, label %16

16:                                               ; preds = %14
  %17 = tail call fastcc i32 @conn_state(ptr noundef nonnull %0, ptr noundef nonnull %6)
  %18 = sext i32 %17 to i64
  br label %52

19:                                               ; preds = %4
  %.not37 = icmp eq ptr %3, null
  br i1 %.not37, label %52, label %20

20:                                               ; preds = %19
  %21 = getelementptr inbounds nuw i8, ptr %0, i64 24
  store i32 1, ptr %21, align 8, !tbaa !22
  switch i64 %2, label %52 [
    i64 0, label %22
    i64 1, label %27
  ]

22:                                               ; preds = %20
  %23 = getelementptr inbounds nuw i8, ptr %6, i64 8
  %24 = load ptr, ptr %23, align 8, !tbaa !23
  tail call void @free(ptr noundef %24) #10
  %25 = tail call ptr @BUF_strdup(ptr noundef nonnull %3) #10
  store ptr %25, ptr %23, align 8, !tbaa !23
  %26 = icmp ne ptr %25, null
  %spec.select = zext i1 %26 to i64
  br label %52

27:                                               ; preds = %20
  %28 = getelementptr inbounds nuw i8, ptr %6, i64 16
  %29 = load ptr, ptr %28, align 8, !tbaa !24
  tail call void @free(ptr noundef %29) #10
  %30 = tail call ptr @BUF_strdup(ptr noundef nonnull %3) #10
  store ptr %30, ptr %28, align 8, !tbaa !24
  %31 = icmp ne ptr %30, null
  %spec.select39 = zext i1 %31 to i64
  br label %52

32:                                               ; preds = %4
  %33 = trunc i64 %2 to i32
  %34 = getelementptr inbounds nuw i8, ptr %6, i64 24
  store i32 %33, ptr %34, align 8, !tbaa !25
  br label %52

35:                                               ; preds = %4
  %36 = getelementptr inbounds nuw i8, ptr %0, i64 24
  %37 = load i32, ptr %36, align 8, !tbaa !22
  %.not = icmp eq i32 %37, 0
  br i1 %.not, label %52, label %38

38:                                               ; preds = %35
  %.not36 = icmp eq ptr %3, null
  %.phi.trans.insert = getelementptr inbounds nuw i8, ptr %0, i64 40
  %.pre = load i32, ptr %.phi.trans.insert, align 8, !tbaa !20
  br i1 %.not36, label %._crit_edge, label %39

39:                                               ; preds = %38
  store i32 %.pre, ptr %3, align 4, !tbaa !26
  br label %._crit_edge

._crit_edge:                                      ; preds = %38, %39
  %40 = sext i32 %.pre to i64
  br label %52

41:                                               ; preds = %4
  %42 = getelementptr inbounds nuw i8, ptr %0, i64 28
  %43 = load i32, ptr %42, align 4, !tbaa !27
  %44 = sext i32 %43 to i64
  br label %52

45:                                               ; preds = %4
  %46 = trunc i64 %2 to i32
  %47 = getelementptr inbounds nuw i8, ptr %0, i64 28
  store i32 %46, ptr %47, align 4, !tbaa !27
  br label %52

48:                                               ; preds = %4
  %49 = getelementptr inbounds nuw i8, ptr %6, i64 168
  %50 = load ptr, ptr %49, align 8, !tbaa !28
  store ptr %50, ptr %3, align 8, !tbaa !29
  br label %52

51:                                               ; preds = %4
  br label %52

52:                                               ; preds = %27, %22, %35, %20, %14, %4, %._crit_edge, %19, %16, %51, %48, %45, %41, %32, %conn_close_socket.exit
  %.0 = phi i64 [ 0, %51 ], [ 1, %48 ], [ 1, %4 ], [ 1, %45 ], [ %44, %41 ], [ %40, %._crit_edge ], [ 1, %32 ], [ 1, %19 ], [ %18, %16 ], [ 0, %conn_close_socket.exit ], [ 1, %14 ], [ %spec.select, %22 ], [ %spec.select39, %27 ], [ 0, %20 ], [ -1, %35 ]
  ret i64 %.0
}